target datalayout = "e-m:e-p270:32:32-p271:32:32-p272:64:64-i64:64-i128:128-f80:128-n8:16:32:64-S128"
target triple = "x86_64-pc-linux-gnu"

%struct.bufferevent = type { ptr, ptr, %struct.event, %struct.event, ptr, ptr, %struct.event_watermark, %struct.event_watermark, ptr, ptr, ptr, ptr, %struct.timeval, %struct.timeval, i16 }
%struct.event = type { %struct.event_callback, %union.anon.0, i32, i16, i16, ptr, %union.anon.2, %struct.timeval }
%struct.event_callback = type { %struct.anon, i16, i8, i8, %union.anon, ptr }
%struct.anon = type { ptr, ptr }
%union.anon = type { ptr }
%union.anon.0 = type { %struct.anon.1 }
%struct.anon.1 = type { ptr, ptr }
%union.anon.2 = type { %struct.anon.3 }
%struct.anon.3 = type { %struct.anon.4, %struct.timeval }
%struct.anon.4 = type { ptr, ptr }
%struct.event_watermark = type { i64, i64 }
%struct.timeval = type { i64, i64 }
%struct.bufferevent_filtered = type { %struct.bufferevent_private, ptr, ptr, ptr, i32, ptr, ptr, ptr, ptr }
%struct.bufferevent_private = type { %struct.bufferevent, ptr, i8, i16, i16, i16, i32, i32, %struct.event_callback, i32, i32, ptr, i64, i64, ptr, %union.anon.7, ptr }
%union.anon.7 = type { %struct.sockaddr_in6 }
%struct.sockaddr_in6 = type { i16, i16, i32, %struct.in6_addr, i32 }
%struct.in6_addr = type { %union.anon.8 }
%union.anon.8 = type { [4 x i32] }

@.str.1 = private unnamed_addr constant [68 x i8] c"BEV_OPT_CLOSE_ON_FREE set on an bufferevent with too few references\00", align 1

; Function Attrs: inlinehint nounwind uwtable
define internal ptr @upcast(ptr noundef %0) #3 {
  %2 = alloca ptr, align 8
  %3 = alloca ptr, align 8
  store ptr %0, ptr %2, align 8
  call void @llvm.lifetime.start.p0(i64 8, ptr %3) #4
  br label %4

4:                                                ; preds = %1
  br label %5

5:                                                ; preds = %4
  br label %6

6:                                                ; preds = %5
  %7 = load ptr, ptr %2, align 8
  %8 = getelementptr inbounds i8, ptr %7, i64 0
  store ptr %8, ptr %3, align 8
  br label %9

9:                                                ; preds = %6
  br label %10

10:                                               ; preds = %9
  br label %11

11:                                               ; preds = %10
  %12 = load ptr, ptr %3, align 8
  call void @llvm.lifetime.end.p0(i64 8, ptr %3) #4
  ret ptr %12
}

; Function Attrs: nounwind uwtable
define internal void @be_filter_unlink(ptr noundef %0) #0 {
  %2 = alloca ptr, align 8
  %3 = alloca ptr, align 8
  store ptr %0, ptr %2, align 8
  call void @llvm.lifetime.start.p0(i64 8, ptr %3) #4
  %4 = load ptr, ptr %2, align 8
  %5 = call ptr @upcast(ptr noundef %4)
  store ptr %5, ptr %3, align 8
  %6 = load ptr, ptr %3, align 8
  %7 = getelementptr inbounds nuw %struct.bufferevent_filtered, ptr %6, i32 0, i32 0
  %8 = getelementptr inbounds nuw %struct.bufferevent_private, ptr %7, i32 0, i32 9
  %9 = load i32, ptr %8, align 8
  %10 = and i32 %9, 1
  %11 = icmp ne i32 %10, 0
  br i1 %11, label %12, label %26

12:                                               ; preds = %1
  %13 = load ptr, ptr %3, align 8
  %14 = getelementptr inbounds nuw %struct.bufferevent_filtered, ptr %13, i32 0, i32 1
  %15 = load ptr, ptr %14, align 8
  %16 = getelementptr inbounds i8, ptr %15, i64 0
  %17 = getelementptr inbounds nuw %struct.bufferevent_private, ptr %16, i32 0, i32 10
  %18 = load i32, ptr %17, align 4
  %19 = icmp slt i32 %18, 2
  br i1 %19, label %20, label %21

20:                                               ; preds = %12
  call void (ptr, ...) @event_warnx(ptr noundef @.str.1)
  br label %25

21:                                               ; preds = %12
  %22 = load ptr, ptr %3, align 8
  %23 = getelementptr inbounds nuw %struct.bufferevent_filtered, ptr %22, i32 0, i32 1
  %24 = load ptr, ptr %23, align 8
  call void @bufferevent_free(ptr noundef %24)
  br label %25

25:                                               ; preds = %21, %20
  br label %47

26:                                               ; preds = %1
  %27 = load ptr, ptr %3, align 8
  %28 = getelementptr inbounds nuw %struct.bufferevent_filtered, ptr %27, i32 0, i32 1
  %29 = load ptr, ptr %28, align 8
  %30 = icmp ne ptr %29, null
  br i1 %30, label %31, label %46

31:                                               ; preds = %26
  %32 = load ptr, ptr %3, align 8
  %33 = getelementptr inbounds nuw %struct.bufferevent_filtered, ptr %32, i32 0, i32 1
  %34 = load ptr, ptr %33, align 8
  %35 = getelementptr inbounds nuw %struct.bufferevent, ptr %34, i32 0, i32 10
  %36 = load ptr, ptr %35, align 8
  %37 = icmp eq ptr %36, @be_filter_eventcb
  br i1 %37, label %38, label %42

38:                                               ; preds = %31
  %39 = load ptr, ptr %3, align 8
  %40 = getelementptr inbounds nuw %struct.bufferevent_filtered, ptr %39, i32 0, i32 1
  %41 = load ptr, ptr %40, align 8
  call void @bufferevent_setcb(ptr noundef %41, ptr noundef null, ptr noundef null, ptr noundef null, ptr noundef null)
  br label %42

42:                                               ; preds = %38, %31
  %43 = load ptr, ptr %3, align 8
  %44 = getelementptr inbounds nuw %struct.bufferevent_filtered, ptr %43, i32 0, i32 1
  %45 = load ptr, ptr %44, align 8
  call void @bufferevent_unsuspend_read_(ptr noundef %45, i16 noundef zeroext 16)
  br label %46

46:                                               ; preds = %42, %26
  br label %47

47:                                               ; preds = %46, %25
  call void @llvm.lifetime.end.p0(i64 8, ptr %3) #4
  ret void
}