; Function Attrs: nounwind uwtable
define internal void @be_filter_unlink(ptr noundef readonly captures(none) %0) #0 {
  %2 = getelementptr inbounds nuw i8, ptr %0, i64 440
  %3 = load i32, ptr %2, align 8
  %4 = and i32 %3, 1
  %.not = icmp eq i32 %4, 0
  %5 = getelementptr inbounds nuw i8, ptr %0, i64 520
  %6 = load ptr, ptr %5, align 8
  br i1 %.not, label %13, label %7

7:                                                ; preds = %1
  %8 = getelementptr inbounds nuw i8, ptr %6, i64 444
  %9 = load i32, ptr %8, align 4
  %10 = icmp slt i32 %9, 2
  br i1 %10, label %11, label %12

11:                                               ; preds = %7
  tail call void (ptr, ...) @event_warnx(ptr noundef nonnull @.str.1) #3
  br label %21

12:                                               ; preds = %7
  tail call void @bufferevent_free(ptr noundef nonnull %6) #3
  br label %21

13:                                               ; preds = %1
  %.not8 = icmp eq ptr %6, null
  br i1 %.not8, label %21, label %14

14:                                               ; preds = %13
  %15 = getelementptr inbounds nuw i8, ptr %6, i64 320
  %16 = load ptr, ptr %15, align 8
  %17 = icmp eq ptr %16, @be_filter_eventcb
  br i1 %17, label %18, label %19

18:                                               ; preds = %14
  tail call void @bufferevent_setcb(ptr noundef nonnull %6, ptr noundef null, ptr noundef null, ptr noundef null, ptr noundef null) #3
  %.pre = load ptr, ptr %5, align 8
  br label %19

19:                                               ; preds = %18, %14
  %20 = phi ptr [ %.pre, %18 ], [ %6, %14 ]
  tail call void @bufferevent_unsuspend_read_(ptr noundef %20, i16 noundef zeroext 16) #3
  br label %21

21:                                               ; preds = %13, %19, %11, %12
  ret void
}